; Function Attrs: mustprogress uwtable
define hidden noundef ptr @_ZN2dt6solver5cloneERN3euf6solverE(ptr noundef nonnull readonly align 8 captures(none) dereferenceable(472) %0, ptr noundef nonnull align 8 dereferenceable(8456) %1) unnamed_addr #3 align 2 {
  %3 = tail call noalias noundef ptr @_ZN6memory8allocateEm(i64 noundef 472)
  %4 = getelementptr inbounds nuw i8, ptr %0, i64 12
  %5 = load i32, ptr %4, align 4, !tbaa !452
  tail call void @_ZN2dt6solverC2ERN3euf6solverEi(ptr noundef nonnull align 8 dereferenceable(472) %3, ptr noundef nonnull align 8 dereferenceable(8456) %1, i32 noundef %5)
  %6 = getelementptr inbounds nuw i8, ptr %0, i64 88
  br label %7

7:                                                ; preds = %15, %2
  %.0 = phi i32 [ 0, %2 ], [ %16, %15 ]
  %8 = load ptr, ptr %6, align 8, !tbaa !432
  %9 = icmp eq ptr %8, null
  br i1 %9, label %_ZNK3euf13th_euf_solver12get_num_varsEv.exit, label %10

10:                                               ; preds = %7
  %11 = getelementptr inbounds i8, ptr %8, i64 -4
  %12 = load i32, ptr %11, align 4, !tbaa !387
  br label %_ZNK3euf13th_euf_solver12get_num_varsEv.exit

_ZNK3euf13th_euf_solver12get_num_varsEv.exit:     ; preds = %7, %10
  %.0.i.i = phi i32 [ %12, %10 ], [ 0, %7 ]
  %13 = icmp ult i32 %.0, %.0.i.i
  br i1 %13, label %15, label %14

14:                                               ; preds = %_ZNK3euf13th_euf_solver12get_num_varsEv.exit
  ret ptr %3

15:                                               ; preds = %_ZNK3euf13th_euf_solver12get_num_varsEv.exit
  tail call void @_ZN2dt6solver9clone_varERS0_i(ptr noundef nonnull align 8 dereferenceable(472) %3, ptr noundef nonnull align 8 dereferenceable(472) %0, i32 noundef %.0)
  %16 = add nuw i32 %.0, 1
  br label %7, !llvm.loop !455
}